target datalayout = "e-m:e-p270:32:32-p271:32:32-p272:64:64-i64:64-i128:128-f80:128-n8:16:32:64-S128"
target triple = "x86_64-pc-linux-gnu"

%class.goal = type <{ ptr, %class.ref, %class.ref.0, %class.ref.1, i32, [4 x i8], %"class.std::__cxx11::basic_string", %"class.parray_manager<ast_manager::expr_array_config>::ref", %"class.parray_manager<ast_manager::expr_array_config>::ref", %"class.parray_manager<ast_manager::expr_dependency_array_config>::ref", i32, [4 x i8] }>
%class.ref = type { ptr }
%class.ref.0 = type { ptr }
%class.ref.1 = type { ptr }
%"class.std::__cxx11::basic_string" = type { %"struct.std::__cxx11::basic_string<char>::_Alloc_hider", i64, %union.anon }
%"struct.std::__cxx11::basic_string<char>::_Alloc_hider" = type { ptr }
%union.anon = type { i64, [8 x i8] }
%"class.parray_manager<ast_manager::expr_array_config>::ref" = type <{ ptr, i32, [4 x i8] }>
%"class.parray_manager<ast_manager::expr_dependency_array_config>::ref" = type <{ ptr, i32, [4 x i8] }>
%class.ast_manager = type { %class.reslimit, %class.small_object_allocator, %class.family_manager, %class.parray_manager, %class.dependency_manager, %class.parray_manager.12, %class.ptr_vector.15, i32, i8, %class.ast_table, %class.obj_map, %class.id_gen, %class.id_gen, ptr, ptr, ptr, ptr, ptr, i32, i8, [3 x i8], %class.u_map, ptr, i8, i8, ptr, %class.symbol, %class.obj_map.23, ptr }
%class.reslimit = type { %"struct.std::atomic", i8, i64, i64, %class.svector, %class.ptr_vector }
%"struct.std::atomic" = type { %"struct.std::__atomic_base" }
%"struct.std::__atomic_base" = type { i32 }
%class.svector = type { %class.vector }
%class.vector = type { ptr }
%class.ptr_vector = type { %class.vector.2 }
%class.vector.2 = type { ptr }
%class.small_object_allocator = type { [32 x ptr], [32 x ptr], i64 }
%class.family_manager = type { i32, %class.symbol_table, %class.svector.6 }
%class.symbol_table = type { %class.core_hashtable, %class.vector.3, %class.svector.4 }
%class.core_hashtable = type <{ ptr, i32, i32, i32, [4 x i8] }>
%class.vector.3 = type { ptr }
%class.svector.4 = type { %class.vector.5 }
%class.vector.5 = type { ptr }
%class.svector.6 = type { %class.vector.7 }
%class.vector.7 = type { ptr }
%class.parray_manager = type { ptr, ptr, %class.ptr_vector.8, %class.ptr_vector.8 }
%class.ptr_vector.8 = type { %class.vector.9 }
%class.vector.9 = type { ptr }
%class.dependency_manager = type { ptr, ptr, %class.ptr_vector.10 }
%class.ptr_vector.10 = type { %class.vector.11 }
%class.vector.11 = type { ptr }
%class.parray_manager.12 = type { ptr, ptr, %class.ptr_vector.13, %class.ptr_vector.13 }
%class.ptr_vector.13 = type { %class.vector.14 }
%class.vector.14 = type { ptr }
%class.ptr_vector.15 = type { %class.vector.16 }
%class.vector.16 = type { ptr }
%class.ast_table = type { %class.chashtable }
%class.chashtable = type { ptr, i32, i32, i32, i32, i32, i32, i32, ptr, ptr, ptr }
%class.obj_map = type { %class.core_hashtable.17 }
%class.core_hashtable.17 = type <{ ptr, i32, i32, i32, [4 x i8] }>
%class.id_gen = type { i32, %class.svector.19 }
%class.svector.19 = type { %class.vector.20 }
%class.vector.20 = type { ptr }
%class.u_map = type { %class.map }
%class.map = type { %class.table2map }
%class.table2map = type { %class.core_hashtable.21 }
%class.core_hashtable.21 = type <{ ptr, i32, i32, i32, [4 x i8] }>
%class.symbol = type { ptr }
%class.obj_map.23 = type { %class.core_hashtable.24 }
%class.core_hashtable.24 = type <{ ptr, i32, i32, i32, [4 x i8] }>

; Function Attrs: mustprogress uwtable
define linkonce_odr hidden void @_ZN14parray_managerIN11ast_manager28expr_dependency_array_configEE7dec_refEPNS2_4cellE(ptr noundef nonnull align 8 dereferenceable(32) %0, ptr noundef %1) #5 comdat align 2 {
  %3 = alloca ptr, align 8
  %4 = alloca ptr, align 8
  store ptr %0, ptr %3, align 8, !tbaa !291
  store ptr %1, ptr %4, align 8, !tbaa !293
  %5 = load ptr, ptr %3, align 8
  %6 = load ptr, ptr %4, align 8, !tbaa !293
  %7 = icmp ne ptr %6, null
  br i1 %7, label %9, label %8

8:                                                ; preds = %2
  br label %24

9:                                                ; preds = %2
  %10 = load ptr, ptr %4, align 8, !tbaa !293
  %11 = load i32, ptr %10, align 8
  %12 = and i32 %11, 1073741823
  %13 = add i32 %12, -1
  %14 = load i32, ptr %10, align 8
  %15 = and i32 %13, 1073741823
  %16 = and i32 %14, -1073741824
  %17 = or i32 %16, %15
  store i32 %17, ptr %10, align 8
  %18 = load ptr, ptr %4, align 8, !tbaa !293
  %19 = load i32, ptr %18, align 8
  %20 = and i32 %19, 1073741823
  %21 = icmp eq i32 %20, 0
  br i1 %21, label %22, label %24

22:                                               ; preds = %9
  %23 = load ptr, ptr %4, align 8, !tbaa !293
  call void @_ZN14parray_managerIN11ast_manager28expr_dependency_array_configEE3delEPNS2_4cellE(ptr noundef nonnull align 8 dereferenceable(32) %5, ptr noundef %23)
  br label %24

24:                                               ; preds = %8, %22, %9
  ret void
}

; Function Attrs: mustprogress uwtable
define linkonce_odr hidden void @_ZN14parray_managerIN11ast_manager17expr_array_configEE7dec_refEPNS2_4cellE(ptr noundef nonnull align 8 dereferenceable(32) %0, ptr noundef %1) #5 comdat align 2 {
  %3 = alloca ptr, align 8
  %4 = alloca ptr, align 8
  store ptr %0, ptr %3, align 8, !tbaa !282
  store ptr %1, ptr %4, align 8, !tbaa !284
  %5 = load ptr, ptr %3, align 8
  %6 = load ptr, ptr %4, align 8, !tbaa !284
  %7 = icmp ne ptr %6, null
  br i1 %7, label %9, label %8

8:                                                ; preds = %2
  br label %24

9:                                                ; preds = %2
  %10 = load ptr, ptr %4, align 8, !tbaa !284
  %11 = load i32, ptr %10, align 8
  %12 = and i32 %11, 1073741823
  %13 = add i32 %12, -1
  %14 = load i32, ptr %10, align 8
  %15 = and i32 %13, 1073741823
  %16 = and i32 %14, -1073741824
  %17 = or i32 %16, %15
  store i32 %17, ptr %10, align 8
  %18 = load ptr, ptr %4, align 8, !tbaa !284
  %19 = load i32, ptr %18, align 8
  %20 = and i32 %19, 1073741823
  %21 = icmp eq i32 %20, 0
  br i1 %21, label %22, label %24

22:                                               ; preds = %9
  %23 = load ptr, ptr %4, align 8, !tbaa !284
  call void @_ZN14parray_managerIN11ast_manager17expr_array_configEE3delEPNS2_4cellE(ptr noundef nonnull align 8 dereferenceable(32) %5, ptr noundef %23)
  br label %24

24:                                               ; preds = %8, %22, %9
  ret void
}

; Function Attrs: mustprogress uwtable
define linkonce_odr hidden void @_ZN14parray_managerIN11ast_manager28expr_dependency_array_configEE3delERNS2_3refE(ptr noundef nonnull align 8 dereferenceable(32) %0, ptr noundef nonnull align 8 dereferenceable(12) %1) #5 comdat align 2 {
  %3 = alloca ptr, align 8
  %4 = alloca ptr, align 8
  store ptr %0, ptr %3, align 8, !tbaa !291
  store ptr %1, ptr %4, align 8, !tbaa !53
  %5 = load ptr, ptr %3, align 8
  %6 = load ptr, ptr %4, align 8, !tbaa !53
  %7 = getelementptr inbounds nuw %"class.parray_manager<ast_manager::expr_dependency_array_config>::ref", ptr %6, i32 0, i32 0
  %8 = load ptr, ptr %7, align 8, !tbaa !55
  call void @_ZN14parray_managerIN11ast_manager28expr_dependency_array_configEE7dec_refEPNS2_4cellE(ptr noundef nonnull align 8 dereferenceable(32) %5, ptr noundef %8)
  %9 = load ptr, ptr %4, align 8, !tbaa !53
  %10 = getelementptr inbounds nuw %"class.parray_manager<ast_manager::expr_dependency_array_config>::ref", ptr %9, i32 0, i32 0
  store ptr null, ptr %10, align 8, !tbaa !55
  %11 = load ptr, ptr %4, align 8, !tbaa !53
  %12 = getelementptr inbounds nuw %"class.parray_manager<ast_manager::expr_dependency_array_config>::ref", ptr %11, i32 0, i32 1
  store i32 0, ptr %12, align 8, !tbaa !56
  ret void
}

; Function Attrs: mustprogress uwtable
define linkonce_odr hidden void @_ZN14parray_managerIN11ast_manager17expr_array_configEE3delERNS2_3refE(ptr noundef nonnull align 8 dereferenceable(32) %0, ptr noundef nonnull align 8 dereferenceable(12) %1) #5 comdat align 2 {
  %3 = alloca ptr, align 8
  %4 = alloca ptr, align 8
  store ptr %0, ptr %3, align 8, !tbaa !282
  store ptr %1, ptr %4, align 8, !tbaa !49
  %5 = load ptr, ptr %3, align 8
  %6 = load ptr, ptr %4, align 8, !tbaa !49
  %7 = getelementptr inbounds nuw %"class.parray_manager<ast_manager::expr_array_config>::ref", ptr %6, i32 0, i32 0
  %8 = load ptr, ptr %7, align 8, !tbaa !51
  call void @_ZN14parray_managerIN11ast_manager17expr_array_configEE7dec_refEPNS2_4cellE(ptr noundef nonnull align 8 dereferenceable(32) %5, ptr noundef %8)
  %9 = load ptr, ptr %4, align 8, !tbaa !49
  %10 = getelementptr inbounds nuw %"class.parray_manager<ast_manager::expr_array_config>::ref", ptr %9, i32 0, i32 0
  store ptr null, ptr %10, align 8, !tbaa !51
  %11 = load ptr, ptr %4, align 8, !tbaa !49
  %12 = getelementptr inbounds nuw %"class.parray_manager<ast_manager::expr_array_config>::ref", ptr %11, i32 0, i32 1
  store i32 0, ptr %12, align 8, !tbaa !52
  ret void
}

; Function Attrs: mustprogress uwtable
define linkonce_odr hidden void @_ZN11ast_manager3delERN14parray_managerINS_28expr_dependency_array_configEE3refE(ptr noundef nonnull align 8 dereferenceable(976) %0, ptr noundef nonnull align 8 dereferenceable(12) %1) #5 comdat align 2 {
  %3 = alloca ptr, align 8
  %4 = alloca ptr, align 8
  store ptr %0, ptr %3, align 8, !tbaa !16
  store ptr %1, ptr %4, align 8, !tbaa !53
  %5 = load ptr, ptr %3, align 8
  %6 = getelementptr inbounds nuw %class.ast_manager, ptr %5, i32 0, i32 5
  %7 = load ptr, ptr %4, align 8, !tbaa !53
  call void @_ZN14parray_managerIN11ast_manager28expr_dependency_array_configEE3delERNS2_3refE(ptr noundef nonnull align 8 dereferenceable(32) %6, ptr noundef nonnull align 8 dereferenceable(12) %7)
  ret void
}

; Function Attrs: mustprogress uwtable
define linkonce_odr hidden void @_ZN11ast_manager3delERN14parray_managerINS_17expr_array_configEE3refE(ptr noundef nonnull align 8 dereferenceable(976) %0, ptr noundef nonnull align 8 dereferenceable(12) %1) #5 comdat align 2 {
  %3 = alloca ptr, align 8
  %4 = alloca ptr, align 8
  store ptr %0, ptr %3, align 8, !tbaa !16
  store ptr %1, ptr %4, align 8, !tbaa !49
  %5 = load ptr, ptr %3, align 8
  %6 = getelementptr inbounds nuw %class.ast_manager, ptr %5, i32 0, i32 3
  %7 = load ptr, ptr %4, align 8, !tbaa !49
  call void @_ZN14parray_managerIN11ast_manager17expr_array_configEE3delERNS2_3refE(ptr noundef nonnull align 8 dereferenceable(32) %6, ptr noundef nonnull align 8 dereferenceable(12) %7)
  ret void
}

; Function Attrs: mustprogress nounwind uwtable
define linkonce_odr hidden noundef nonnull align 8 dereferenceable(976) ptr @_ZNK4goal1mEv(ptr noundef nonnull align 8 dereferenceable(124) %0) #4 comdat align 2 {
  %2 = alloca ptr, align 8
  store ptr %0, ptr %2, align 8, !tbaa !14
  %3 = load ptr, ptr %2, align 8
  %4 = getelementptr inbounds nuw %class.goal, ptr %3, i32 0, i32 0
  %5 = load ptr, ptr %4, align 8, !tbaa !121
  ret ptr %5
}

; Function Attrs: mustprogress uwtable
define hidden void @_ZN4goal10reset_coreEv(ptr noundef nonnull align 8 dereferenceable(124) %0) #5 align 2 {
  %2 = alloca ptr, align 8
  store ptr %0, ptr %2, align 8, !tbaa !14
  %3 = load ptr, ptr %2, align 8
  %4 = call noundef nonnull align 8 dereferenceable(976) ptr @_ZNK4goal1mEv(ptr noundef nonnull align 8 dereferenceable(124) %3)
  %5 = getelementptr inbounds nuw %class.goal, ptr %3, i32 0, i32 7
  call void @_ZN11ast_manager3delERN14parray_managerINS_17expr_array_configEE3refE(ptr noundef nonnull align 8 dereferenceable(976) %4, ptr noundef nonnull align 8 dereferenceable(12) %5)
  %6 = call noundef nonnull align 8 dereferenceable(976) ptr @_ZNK4goal1mEv(ptr noundef nonnull align 8 dereferenceable(124) %3)
  %7 = getelementptr inbounds nuw %class.goal, ptr %3, i32 0, i32 8
  call void @_ZN11ast_manager3delERN14parray_managerINS_17expr_array_configEE3refE(ptr noundef nonnull align 8 dereferenceable(976) %6, ptr noundef nonnull align 8 dereferenceable(12) %7)
  %8 = call noundef nonnull align 8 dereferenceable(976) ptr @_ZNK4goal1mEv(ptr noundef nonnull align 8 dereferenceable(124) %3)
  %9 = getelementptr inbounds nuw %class.goal, ptr %3, i32 0, i32 9
  call void @_ZN11ast_manager3delERN14parray_managerINS_28expr_dependency_array_configEE3refE(ptr noundef nonnull align 8 dereferenceable(976) %8, ptr noundef nonnull align 8 dereferenceable(12) %9)
  ret void
}