; Function Attrs: mustprogress uwtable
define hidden void @_ZN4goal10reset_coreEv(ptr noundef nonnull align 8 captures(none) dereferenceable(124) initializes((80, 84), (96, 100), (112, 116)) %0) local_unnamed_addr #4 align 2 {
  %2 = load ptr, ptr %0, align 8, !tbaa !102
  %3 = getelementptr inbounds nuw i8, ptr %0, i64 72
  %4 = getelementptr inbounds nuw i8, ptr %2, i64 616
  %5 = load ptr, ptr %3, align 8, !tbaa !15
  %.not.i.i.i = icmp eq ptr %5, null
  br i1 %.not.i.i.i, label %_ZN11ast_manager3delERN14parray_managerINS_17expr_array_configEE3refE.exit, label %6

6:                                                ; preds = %1
  %7 = load i32, ptr %5, align 8
  %8 = add i32 %7, 1073741823
  %9 = and i32 %8, 1073741823
  %10 = and i32 %7, -1073741824
  %11 = or disjoint i32 %9, %10
  store i32 %11, ptr %5, align 8
  %12 = and i32 %7, 1073741823
  %13 = icmp eq i32 %12, 1
  br i1 %13, label %14, label %_ZN11ast_manager3delERN14parray_managerINS_17expr_array_configEE3refE.exit

14:                                               ; preds = %6
  tail call void @_ZN14parray_managerIN11ast_manager17expr_array_configEE3delEPNS2_4cellE(ptr noundef nonnull align 8 dereferenceable(32) %4, ptr noundef nonnull %5)
  br label %_ZN11ast_manager3delERN14parray_managerINS_17expr_array_configEE3refE.exit

_ZN11ast_manager3delERN14parray_managerINS_17expr_array_configEE3refE.exit: ; preds = %1, %6, %14
  store ptr null, ptr %3, align 8, !tbaa !15
  %15 = getelementptr inbounds nuw i8, ptr %0, i64 80
  store i32 0, ptr %15, align 8, !tbaa !19
  %16 = load ptr, ptr %0, align 8, !tbaa !102
  %17 = getelementptr inbounds nuw i8, ptr %0, i64 88
  %18 = getelementptr inbounds nuw i8, ptr %16, i64 616
  %19 = load ptr, ptr %17, align 8, !tbaa !15
  %.not.i.i.i1 = icmp eq ptr %19, null
  br i1 %.not.i.i.i1, label %_ZN11ast_manager3delERN14parray_managerINS_17expr_array_configEE3refE.exit2, label %20

20:                                               ; preds = %_ZN11ast_manager3delERN14parray_managerINS_17expr_array_configEE3refE.exit
  %21 = load i32, ptr %19, align 8
  %22 = add i32 %21, 1073741823
  %23 = and i32 %22, 1073741823
  %24 = and i32 %21, -1073741824
  %25 = or disjoint i32 %23, %24
  store i32 %25, ptr %19, align 8
  %26 = and i32 %21, 1073741823
  %27 = icmp eq i32 %26, 1
  br i1 %27, label %28, label %_ZN11ast_manager3delERN14parray_managerINS_17expr_array_configEE3refE.exit2

28:                                               ; preds = %20
  tail call void @_ZN14parray_managerIN11ast_manager17expr_array_configEE3delEPNS2_4cellE(ptr noundef nonnull align 8 dereferenceable(32) %18, ptr noundef nonnull %19)
  br label %_ZN11ast_manager3delERN14parray_managerINS_17expr_array_configEE3refE.exit2

_ZN11ast_manager3delERN14parray_managerINS_17expr_array_configEE3refE.exit2: ; preds = %_ZN11ast_manager3delERN14parray_managerINS_17expr_array_configEE3refE.exit, %20, %28
  store ptr null, ptr %17, align 8, !tbaa !15
  %29 = getelementptr inbounds nuw i8, ptr %0, i64 96
  store i32 0, ptr %29, align 8, !tbaa !19
  %30 = load ptr, ptr %0, align 8, !tbaa !102
  %31 = getelementptr inbounds nuw i8, ptr %0, i64 104
  %32 = getelementptr inbounds nuw i8, ptr %30, i64 672
  %33 = load ptr, ptr %31, align 8, !tbaa !20
  %.not.i.i.i3 = icmp eq ptr %33, null
  br i1 %.not.i.i.i3, label %_ZN11ast_manager3delERN14parray_managerINS_28expr_dependency_array_configEE3refE.exit, label %34

34:                                               ; preds = %_ZN11ast_manager3delERN14parray_managerINS_17expr_array_configEE3refE.exit2
  %35 = load i32, ptr %33, align 8
  %36 = add i32 %35, 1073741823
  %37 = and i32 %36, 1073741823
  %38 = and i32 %35, -1073741824
  %39 = or disjoint i32 %37, %38
  store i32 %39, ptr %33, align 8
  %40 = and i32 %35, 1073741823
  %41 = icmp eq i32 %40, 1
  br i1 %41, label %42, label %_ZN11ast_manager3delERN14parray_managerINS_28expr_dependency_array_configEE3refE.exit

42:                                               ; preds = %34
  tail call void @_ZN14parray_managerIN11ast_manager28expr_dependency_array_configEE3delEPNS2_4cellE(ptr noundef nonnull align 8 dereferenceable(32) %32, ptr noundef nonnull %33)
  br label %_ZN11ast_manager3delERN14parray_managerINS_28expr_dependency_array_configEE3refE.exit

_ZN11ast_manager3delERN14parray_managerINS_28expr_dependency_array_configEE3refE.exit: ; preds = %_ZN11ast_manager3delERN14parray_managerINS_17expr_array_configEE3refE.exit2, %34, %42
  store ptr null, ptr %31, align 8, !tbaa !20
  %43 = getelementptr inbounds nuw i8, ptr %0, i64 112
  store i32 0, ptr %43, align 8, !tbaa !23
  ret void
}